target datalayout = "e-m:e-p270:32:32-p271:32:32-p272:64:64-i64:64-i128:128-f80:128-n8:16:32:64-S128"
target triple = "x86_64-pc-linux-gnu"

%"class.clang::QualType" = type { %"class.llvm::PointerIntPair" }
%"class.llvm::PointerIntPair" = type { %"struct.llvm::detail::PunnedPointer" }
%"struct.llvm::detail::PunnedPointer" = type { [8 x i8] }
%"class.clang::ExtQualsTypeCommonBase" = type { ptr, %"class.clang::QualType" }
%"class.clang::Type.base" = type { %"class.clang::ExtQualsTypeCommonBase", %union.anon }
%union.anon = type { %"class.clang::Type::FunctionTypeBitfields" }
%"class.clang::Type::FunctionTypeBitfields" = type { i64 }
%"class.llvm::FoldingSetBase::Node" = type { ptr }
%"class.llvm::ArrayRef.1186" = type { ptr, i64 }
%"class.clang::Type" = type { %"class.clang::ExtQualsTypeCommonBase", %union.anon, [8 x i8] }
%"class.clang::FunctionType" = type { %"class.clang::Type.base", %"class.clang::QualType" }
%"class.clang::FunctionProtoType" = type { %"class.clang::FunctionType", %"class.llvm::FoldingSetBase::Node", [8 x i8] }

; Function Attrs: mustprogress nounwind uwtable
define linkonce_odr hidden noundef i64 @_ZN4llvm15TrailingObjectsIN5clang17FunctionProtoTypeEJNS1_8QualTypeENS1_14SourceLocationENS1_12FunctionType26FunctionTypeExtraBitfieldsENS5_25FunctionTypeArmAttributesENS5_13ExceptionTypeEPNS1_4ExprEPNS1_12FunctionDeclENS5_16ExtParameterInfoENS1_10QualifiersENS1_14FunctionEffectENS1_19EffectConditionExprEEE22callNumTrailingObjectsEPKS2_NS_25trailing_objects_internal19TrailingObjectsBase13OverloadTokenIS2_EE(ptr noundef %0) #0 comdat align 2 {
  %2 = alloca ptr, align 8
  store ptr %0, ptr %2, align 8
  ret i64 1
}

; Function Attrs: mustprogress nounwind uwtable
define linkonce_odr hidden noundef ptr @_ZN4llvm15TrailingObjectsIN5clang17FunctionProtoTypeEJNS1_8QualTypeENS1_14SourceLocationENS1_12FunctionType26FunctionTypeExtraBitfieldsENS5_25FunctionTypeArmAttributesENS5_13ExceptionTypeEPNS1_4ExprEPNS1_12FunctionDeclENS5_16ExtParameterInfoENS1_10QualifiersENS1_14FunctionEffectENS1_19EffectConditionExprEEE22getTrailingObjectsImplEPKS2_NS_25trailing_objects_internal19TrailingObjectsBase13OverloadTokenIS2_EE(ptr noundef %0) #0 comdat align 2 {
  %2 = alloca ptr, align 8
  store ptr %0, ptr %2, align 8
  %3 = load ptr, ptr %2, align 8
  ret ptr %3
}

; Function Attrs: mustprogress nounwind uwtable
define linkonce_odr hidden noundef ptr @_ZN4llvm25trailing_objects_internal19TrailingObjectsImplILi8EN5clang17FunctionProtoTypeENS_15TrailingObjectsIS3_JNS2_8QualTypeENS2_14SourceLocationENS2_12FunctionType26FunctionTypeExtraBitfieldsENS7_25FunctionTypeArmAttributesENS7_13ExceptionTypeEPNS2_4ExprEPNS2_12FunctionDeclENS7_16ExtParameterInfoENS2_10QualifiersENS2_14FunctionEffectENS2_19EffectConditionExprEEEES3_JS5_S6_S8_S9_SA_SC_SE_SF_SG_SH_SI_EE22getTrailingObjectsImplEPKS3_NS0_19TrailingObjectsBase13OverloadTokenIS5_EE(ptr noundef %0) #0 comdat align 2 {
  %2 = alloca ptr, align 8
  %3 = alloca ptr, align 8
  store ptr %0, ptr %2, align 8
  %4 = load ptr, ptr %2, align 8
  %5 = call noundef ptr @_ZN4llvm15TrailingObjectsIN5clang17FunctionProtoTypeEJNS1_8QualTypeENS1_14SourceLocationENS1_12FunctionType26FunctionTypeExtraBitfieldsENS5_25FunctionTypeArmAttributesENS5_13ExceptionTypeEPNS1_4ExprEPNS1_12FunctionDeclENS5_16ExtParameterInfoENS1_10QualifiersENS1_14FunctionEffectENS1_19EffectConditionExprEEE22getTrailingObjectsImplEPKS2_NS_25trailing_objects_internal19TrailingObjectsBase13OverloadTokenIS2_EE(ptr noundef %4)
  %6 = load ptr, ptr %2, align 8
  %7 = call noundef i64 @_ZN4llvm15TrailingObjectsIN5clang17FunctionProtoTypeEJNS1_8QualTypeENS1_14SourceLocationENS1_12FunctionType26FunctionTypeExtraBitfieldsENS5_25FunctionTypeArmAttributesENS5_13ExceptionTypeEPNS1_4ExprEPNS1_12FunctionDeclENS5_16ExtParameterInfoENS1_10QualifiersENS1_14FunctionEffectENS1_19EffectConditionExprEEE22callNumTrailingObjectsEPKS2_NS_25trailing_objects_internal19TrailingObjectsBase13OverloadTokenIS2_EE(ptr noundef %6)
  %8 = getelementptr inbounds %"class.clang::FunctionProtoType", ptr %5, i64 %7
  store ptr %8, ptr %3, align 8
  %9 = load ptr, ptr %3, align 8
  ret ptr %9
}

; Function Attrs: mustprogress nounwind uwtable
define linkonce_odr hidden void @_ZN4llvm15TrailingObjectsIN5clang17FunctionProtoTypeEJNS1_8QualTypeENS1_14SourceLocationENS1_12FunctionType26FunctionTypeExtraBitfieldsENS5_25FunctionTypeArmAttributesENS5_13ExceptionTypeEPNS1_4ExprEPNS1_12FunctionDeclENS5_16ExtParameterInfoENS1_10QualifiersENS1_14FunctionEffectENS1_19EffectConditionExprEEE31verifyTrailingObjectsAssertionsEv() #0 comdat align 2 {
  ret void
}

; Function Attrs: mustprogress nounwind uwtable
define linkonce_odr hidden void @_ZN4llvm8ArrayRefIN5clang8QualTypeEEC2EPKS2_m(ptr noundef nonnull align 8 dereferenceable(16) %0, ptr noundef %1, i64 noundef %2) unnamed_addr #0 comdat align 2 {
  %4 = alloca ptr, align 8
  %5 = alloca ptr, align 8
  %6 = alloca i64, align 8
  store ptr %0, ptr %4, align 8
  store ptr %1, ptr %5, align 8
  store i64 %2, ptr %6, align 8
  %7 = load ptr, ptr %4, align 8
  %8 = getelementptr inbounds nuw %"class.llvm::ArrayRef.1186", ptr %7, i32 0, i32 0
  %9 = load ptr, ptr %5, align 8
  store ptr %9, ptr %8, align 8
  %10 = getelementptr inbounds nuw %"class.llvm::ArrayRef.1186", ptr %7, i32 0, i32 1
  %11 = load i64, ptr %6, align 8
  store i64 %11, ptr %10, align 8
  ret void
}

; Function Attrs: mustprogress nounwind uwtable
define linkonce_odr hidden noundef ptr @_ZNK4llvm8ArrayRefIN5clang8QualTypeEE4dataEv(ptr noundef nonnull align 8 dereferenceable(16) %0) #0 comdat align 2 {
  %2 = alloca ptr, align 8
  store ptr %0, ptr %2, align 8
  %3 = load ptr, ptr %2, align 8
  %4 = getelementptr inbounds nuw %"class.llvm::ArrayRef.1186", ptr %3, i32 0, i32 0
  %5 = load ptr, ptr %4, align 8
  ret ptr %5
}

; Function Attrs: mustprogress nounwind uwtable
define linkonce_odr hidden noundef i32 @_ZNK5clang17FunctionProtoType12getNumParamsEv(ptr noundef nonnull align 16 dereferenceable(48) %0) #0 comdat align 2 {
  %2 = alloca ptr, align 8
  store ptr %0, ptr %2, align 8
  %3 = load ptr, ptr %2, align 8
  %4 = getelementptr inbounds nuw %"class.clang::Type", ptr %3, i32 0, i32 1
  %5 = load i64, ptr %4, align 16
  %6 = lshr i64 %5, 38
  %7 = and i64 %6, 65535
  %8 = trunc i64 %7 to i32
  ret i32 %8
}

; Function Attrs: mustprogress nounwind uwtable
define linkonce_odr hidden noundef ptr @_ZNK4llvm15TrailingObjectsIN5clang17FunctionProtoTypeEJNS1_8QualTypeENS1_14SourceLocationENS1_12FunctionType26FunctionTypeExtraBitfieldsENS5_25FunctionTypeArmAttributesENS5_13ExceptionTypeEPNS1_4ExprEPNS1_12FunctionDeclENS5_16ExtParameterInfoENS1_10QualifiersENS1_14FunctionEffectENS1_19EffectConditionExprEEE18getTrailingObjectsIS3_EEPKT_v(ptr noundef nonnull align 8 dereferenceable(8) %0) #0 comdat align 2 {
  %2 = alloca ptr, align 8
  store ptr %0, ptr %2, align 8
  %3 = load ptr, ptr %2, align 8
  call void @_ZN4llvm15TrailingObjectsIN5clang17FunctionProtoTypeEJNS1_8QualTypeENS1_14SourceLocationENS1_12FunctionType26FunctionTypeExtraBitfieldsENS5_25FunctionTypeArmAttributesENS5_13ExceptionTypeEPNS1_4ExprEPNS1_12FunctionDeclENS5_16ExtParameterInfoENS1_10QualifiersENS1_14FunctionEffectENS1_19EffectConditionExprEEE31verifyTrailingObjectsAssertionsEv()
  %4 = call noundef ptr @_ZN4llvm25trailing_objects_internal19TrailingObjectsImplILi8EN5clang17FunctionProtoTypeENS_15TrailingObjectsIS3_JNS2_8QualTypeENS2_14SourceLocationENS2_12FunctionType26FunctionTypeExtraBitfieldsENS7_25FunctionTypeArmAttributesENS7_13ExceptionTypeEPNS2_4ExprEPNS2_12FunctionDeclENS7_16ExtParameterInfoENS2_10QualifiersENS2_14FunctionEffectENS2_19EffectConditionExprEEEES3_JS5_S6_S8_S9_SA_SC_SE_SF_SG_SH_SI_EE22getTrailingObjectsImplEPKS3_NS0_19TrailingObjectsBase13OverloadTokenIS5_EE(ptr noundef %3)
  ret ptr %4
}

; Function Attrs: mustprogress nounwind uwtable
define linkonce_odr hidden noundef ptr @_ZN4llvm16cast_convert_valIN5clang17FunctionProtoTypeEPKNS1_12FunctionTypeES5_E4doitES5_(ptr noundef %0) #0 comdat align 2 {
  %2 = alloca ptr, align 8
  store ptr %0, ptr %2, align 8
  %3 = load ptr, ptr %2, align 8
  ret ptr %3
}

; Function Attrs: mustprogress nounwind uwtable
define linkonce_odr hidden { ptr, i64 } @_ZNK4llvm8ArrayRefIN5clang8QualTypeEE5sliceEmm(ptr noundef nonnull align 8 dereferenceable(16) %0, i64 noundef %1, i64 noundef %2) #0 comdat align 2 {
  %4 = alloca %"class.llvm::ArrayRef.1186", align 8
  %5 = alloca ptr, align 8
  %6 = alloca i64, align 8
  %7 = alloca i64, align 8
  store ptr %0, ptr %5, align 8
  store i64 %1, ptr %6, align 8
  store i64 %2, ptr %7, align 8
  %8 = load ptr, ptr %5, align 8
  %9 = call noundef ptr @_ZNK4llvm8ArrayRefIN5clang8QualTypeEE4dataEv(ptr noundef nonnull align 8 dereferenceable(16) %8)
  %10 = load i64, ptr %6, align 8
  %11 = getelementptr inbounds %"class.clang::QualType", ptr %9, i64 %10
  %12 = load i64, ptr %7, align 8
  call void @_ZN4llvm8ArrayRefIN5clang8QualTypeEEC2EPKS2_m(ptr noundef nonnull align 8 dereferenceable(16) %4, ptr noundef %11, i64 noundef %12)
  %13 = load { ptr, i64 }, ptr %4, align 8
  ret { ptr, i64 } %13
}

; Function Attrs: mustprogress nounwind uwtable
define linkonce_odr hidden noundef i64 @_ZNK4llvm8ArrayRefIN5clang8QualTypeEE4sizeEv(ptr noundef nonnull align 8 dereferenceable(16) %0) #0 comdat align 2 {
  %2 = alloca ptr, align 8
  store ptr %0, ptr %2, align 8
  %3 = load ptr, ptr %2, align 8
  %4 = getelementptr inbounds nuw %"class.llvm::ArrayRef.1186", ptr %3, i32 0, i32 1
  %5 = load i64, ptr %4, align 8
  ret i64 %5
}

; Function Attrs: mustprogress nounwind uwtable
define linkonce_odr hidden void @_ZN4llvm8ArrayRefIN5clang8QualTypeEEC2EPKS2_S5_(ptr noundef nonnull align 8 dereferenceable(16) %0, ptr noundef %1, ptr noundef %2) unnamed_addr #0 comdat align 2 {
  %4 = alloca ptr, align 8
  %5 = alloca ptr, align 8
  %6 = alloca ptr, align 8
  store ptr %0, ptr %4, align 8
  store ptr %1, ptr %5, align 8
  store ptr %2, ptr %6, align 8
  %7 = load ptr, ptr %4, align 8
  %8 = getelementptr inbounds nuw %"class.llvm::ArrayRef.1186", ptr %7, i32 0, i32 0
  %9 = load ptr, ptr %5, align 8
  store ptr %9, ptr %8, align 8
  %10 = getelementptr inbounds nuw %"class.llvm::ArrayRef.1186", ptr %7, i32 0, i32 1
  %11 = load ptr, ptr %6, align 8
  %12 = load ptr, ptr %5, align 8
  %13 = ptrtoint ptr %11 to i64
  %14 = ptrtoint ptr %12 to i64
  %15 = sub i64 %13, %14
  %16 = sdiv exact i64 %15, 8
  store i64 %16, ptr %10, align 8
  ret void
}

; Function Attrs: mustprogress nounwind uwtable
define linkonce_odr hidden noundef ptr @_ZNK5clang17FunctionProtoType14param_type_endEv(ptr noundef nonnull align 16 dereferenceable(48) %0) #0 comdat align 2 {
  %2 = alloca ptr, align 8
  store ptr %0, ptr %2, align 8
  %3 = load ptr, ptr %2, align 8
  %4 = call noundef ptr @_ZNK5clang17FunctionProtoType16param_type_beginEv(ptr noundef nonnull align 16 dereferenceable(48) %3)
  %5 = call noundef i32 @_ZNK5clang17FunctionProtoType12getNumParamsEv(ptr noundef nonnull align 16 dereferenceable(48) %3)
  %6 = zext i32 %5 to i64
  %7 = getelementptr inbounds %"class.clang::QualType", ptr %4, i64 %6
  ret ptr %7
}

; Function Attrs: mustprogress nounwind uwtable
define linkonce_odr hidden noundef ptr @_ZNK5clang17FunctionProtoType16param_type_beginEv(ptr noundef nonnull align 16 dereferenceable(48) %0) #0 comdat align 2 {
  %2 = alloca ptr, align 8
  store ptr %0, ptr %2, align 8
  %3 = load ptr, ptr %2, align 8
  %4 = call noundef ptr @_ZNK4llvm15TrailingObjectsIN5clang17FunctionProtoTypeEJNS1_8QualTypeENS1_14SourceLocationENS1_12FunctionType26FunctionTypeExtraBitfieldsENS5_25FunctionTypeArmAttributesENS5_13ExceptionTypeEPNS1_4ExprEPNS1_12FunctionDeclENS5_16ExtParameterInfoENS1_10QualifiersENS1_14FunctionEffectENS1_19EffectConditionExprEEE18getTrailingObjectsIS3_EEPKT_v(ptr noundef nonnull align 8 dereferenceable(8) %3)
  ret ptr %4
}

; Function Attrs: mustprogress nounwind uwtable
define linkonce_odr hidden noundef ptr @_ZN4llvm8CastInfoIN5clang17FunctionProtoTypeEPKNS1_12FunctionTypeEvE6doCastERKS5_(ptr noundef nonnull align 8 dereferenceable(8) %0) #0 comdat align 2 {
  %2 = alloca ptr, align 8
  store ptr %0, ptr %2, align 8
  %3 = load ptr, ptr %2, align 8
  %4 = load ptr, ptr %3, align 8
  %5 = call noundef ptr @_ZN4llvm16cast_convert_valIN5clang17FunctionProtoTypeEPKNS1_12FunctionTypeES5_E4doitES5_(ptr noundef %4)
  ret ptr %5
}

; Function Attrs: mustprogress nounwind uwtable
define linkonce_odr hidden { ptr, i64 } @_ZNK4llvm8ArrayRefIN5clang8QualTypeEE5sliceEm(ptr noundef nonnull align 8 dereferenceable(16) %0, i64 noundef %1) #0 comdat align 2 {
  %3 = alloca %"class.llvm::ArrayRef.1186", align 8
  %4 = alloca ptr, align 8
  %5 = alloca i64, align 8
  store ptr %0, ptr %4, align 8
  store i64 %1, ptr %5, align 8
  %6 = load ptr, ptr %4, align 8
  %7 = load i64, ptr %5, align 8
  %8 = call noundef i64 @_ZNK4llvm8ArrayRefIN5clang8QualTypeEE4sizeEv(ptr noundef nonnull align 8 dereferenceable(16) %6)
  %9 = load i64, ptr %5, align 8
  %10 = sub i64 %8, %9
  %11 = call { ptr, i64 } @_ZNK4llvm8ArrayRefIN5clang8QualTypeEE5sliceEmm(ptr noundef nonnull align 8 dereferenceable(16) %6, i64 noundef %7, i64 noundef %10)
  %12 = getelementptr inbounds nuw { ptr, i64 }, ptr %3, i32 0, i32 0
  %13 = extractvalue { ptr, i64 } %11, 0
  store ptr %13, ptr %12, align 8
  %14 = getelementptr inbounds nuw { ptr, i64 }, ptr %3, i32 0, i32 1
  %15 = extractvalue { ptr, i64 } %11, 1
  store i64 %15, ptr %14, align 8
  %16 = load { ptr, i64 }, ptr %3, align 8
  ret { ptr, i64 } %16
}

; Function Attrs: mustprogress nounwind uwtable
define linkonce_odr hidden { ptr, i64 } @_ZNK5clang17FunctionProtoType11param_typesEv(ptr noundef nonnull align 16 dereferenceable(48) %0) #0 comdat align 2 {
  %2 = alloca %"class.llvm::ArrayRef.1186", align 8
  %3 = alloca ptr, align 8
  store ptr %0, ptr %3, align 8
  %4 = load ptr, ptr %3, align 8
  %5 = call noundef ptr @_ZNK5clang17FunctionProtoType16param_type_beginEv(ptr noundef nonnull align 16 dereferenceable(48) %4)
  %6 = call noundef ptr @_ZNK5clang17FunctionProtoType14param_type_endEv(ptr noundef nonnull align 16 dereferenceable(48) %4)
  call void @_ZN4llvm8ArrayRefIN5clang8QualTypeEEC2EPKS2_S5_(ptr noundef nonnull align 8 dereferenceable(16) %2, ptr noundef %5, ptr noundef %6)
  %7 = load { ptr, i64 }, ptr %2, align 8
  ret { ptr, i64 } %7
}

; Function Attrs: mustprogress nounwind uwtable
define linkonce_odr hidden noundef ptr @_ZN4llvm4castIN5clang17FunctionProtoTypeEKNS1_12FunctionTypeEEEDcPT0_(ptr noundef %0) #0 comdat {
  %2 = alloca ptr, align 8
  store ptr %0, ptr %2, align 8
  %3 = call noundef ptr @_ZN4llvm8CastInfoIN5clang17FunctionProtoTypeEPKNS1_12FunctionTypeEvE6doCastERKS5_(ptr noundef nonnull align 8 dereferenceable(8) %2)
  ret ptr %3
}

; Function Attrs: mustprogress nounwind uwtable
define dso_local noundef zeroext i1 @_ZN5clang4Sema35FunctionNonObjectParamTypesAreEqualEPKNS_12FunctionDeclES3_Pjb(ptr noundef nonnull align 8 dereferenceable(17560) %0, ptr noundef %1, ptr noundef %2, ptr noundef %3, i1 noundef zeroext %4) #0 align 2 {
  %6 = alloca i1, align 1
  %7 = alloca ptr, align 8
  %8 = alloca ptr, align 8
  %9 = alloca ptr, align 8
  %10 = alloca ptr, align 8
  %11 = alloca i8, align 1
  %12 = alloca i32, align 4
  %13 = alloca i32, align 4
  %14 = alloca ptr, align 8
  %15 = alloca ptr, align 8
  %16 = alloca %"class.llvm::ArrayRef.1186", align 8
  %17 = alloca %"class.llvm::ArrayRef.1186", align 8
  %18 = alloca %"class.llvm::ArrayRef.1186", align 8
  %19 = alloca %"class.llvm::ArrayRef.1186", align 8
  store ptr %0, ptr %7, align 8
  store ptr %1, ptr %8, align 8
  store ptr %2, ptr %9, align 8
  store ptr %3, ptr %10, align 8
  %20 = zext i1 %4 to i8
  store i8 %20, ptr %11, align 1
  %21 = load ptr, ptr %7, align 8
  %22 = load ptr, ptr %8, align 8
  %23 = call noundef i32 @_ZNK5clang12FunctionDecl21getNumNonObjectParamsEv(ptr noundef nonnull align 8 dereferenceable(168) %22)
  %24 = load ptr, ptr %9, align 8
  %25 = call noundef i32 @_ZNK5clang12FunctionDecl21getNumNonObjectParamsEv(ptr noundef nonnull align 8 dereferenceable(168) %24)
  %26 = icmp ne i32 %23, %25
  br i1 %26, label %27, label %28

27:                                               ; preds = %5
  store i1 false, ptr %6, align 1
  br label %79

28:                                               ; preds = %5
  %29 = load ptr, ptr %8, align 8
  %30 = call noundef zeroext i1 @_ZNK5clang12FunctionDecl37hasCXXExplicitFunctionObjectParameterEv(ptr noundef nonnull align 8 dereferenceable(168) %29)
  %31 = zext i1 %30 to i32
  store i32 %31, ptr %12, align 4
  %32 = load ptr, ptr %9, align 8
  %33 = call noundef zeroext i1 @_ZNK5clang12FunctionDecl37hasCXXExplicitFunctionObjectParameterEv(ptr noundef nonnull align 8 dereferenceable(168) %32)
  %34 = zext i1 %33 to i32
  store i32 %34, ptr %13, align 4
  %35 = load ptr, ptr %8, align 8
  %36 = call noundef ptr @_ZNK5clang4Decl15getFunctionTypeEb(ptr noundef nonnull align 8 dereferenceable(33) %35, i1 noundef zeroext true)
  %37 = call noundef ptr @_ZN4llvm4castIN5clang17FunctionProtoTypeEKNS1_12FunctionTypeEEEDcPT0_(ptr noundef %36)
  store ptr %37, ptr %14, align 8
  %38 = load ptr, ptr %9, align 8
  %39 = call noundef ptr @_ZNK5clang4Decl15getFunctionTypeEb(ptr noundef nonnull align 8 dereferenceable(33) %38, i1 noundef zeroext true)
  %40 = call noundef ptr @_ZN4llvm4castIN5clang17FunctionProtoTypeEKNS1_12FunctionTypeEEEDcPT0_(ptr noundef %39)
  store ptr %40, ptr %15, align 8
  %41 = load ptr, ptr %14, align 8
  %42 = call { ptr, i64 } @_ZNK5clang17FunctionProtoType11param_typesEv(ptr noundef nonnull align 16 dereferenceable(48) %41)
  %43 = getelementptr inbounds nuw { ptr, i64 }, ptr %17, i32 0, i32 0
  %44 = extractvalue { ptr, i64 } %42, 0
  store ptr %44, ptr %43, align 8
  %45 = getelementptr inbounds nuw { ptr, i64 }, ptr %17, i32 0, i32 1
  %46 = extractvalue { ptr, i64 } %42, 1
  store i64 %46, ptr %45, align 8
  %47 = load i32, ptr %12, align 4
  %48 = zext i32 %47 to i64
  %49 = call { ptr, i64 } @_ZNK4llvm8ArrayRefIN5clang8QualTypeEE5sliceEm(ptr noundef nonnull align 8 dereferenceable(16) %17, i64 noundef %48)
  %50 = getelementptr inbounds nuw { ptr, i64 }, ptr %16, i32 0, i32 0
  %51 = extractvalue { ptr, i64 } %49, 0
  store ptr %51, ptr %50, align 8
  %52 = getelementptr inbounds nuw { ptr, i64 }, ptr %16, i32 0, i32 1
  %53 = extractvalue { ptr, i64 } %49, 1
  store i64 %53, ptr %52, align 8
  %54 = load ptr, ptr %15, align 8
  %55 = call { ptr, i64 } @_ZNK5clang17FunctionProtoType11param_typesEv(ptr noundef nonnull align 16 dereferenceable(48) %54)
  %56 = getelementptr inbounds nuw { ptr, i64 }, ptr %19, i32 0, i32 0
  %57 = extractvalue { ptr, i64 } %55, 0
  store ptr %57, ptr %56, align 8
  %58 = getelementptr inbounds nuw { ptr, i64 }, ptr %19, i32 0, i32 1
  %59 = extractvalue { ptr, i64 } %55, 1
  store i64 %59, ptr %58, align 8
  %60 = load i32, ptr %13, align 4
  %61 = zext i32 %60 to i64
  %62 = call { ptr, i64 } @_ZNK4llvm8ArrayRefIN5clang8QualTypeEE5sliceEm(ptr noundef nonnull align 8 dereferenceable(16) %19, i64 noundef %61)
  %63 = getelementptr inbounds nuw { ptr, i64 }, ptr %18, i32 0, i32 0
  %64 = extractvalue { ptr, i64 } %62, 0
  store ptr %64, ptr %63, align 8
  %65 = getelementptr inbounds nuw { ptr, i64 }, ptr %18, i32 0, i32 1
  %66 = extractvalue { ptr, i64 } %62, 1
  store i64 %66, ptr %65, align 8
  %67 = load ptr, ptr %10, align 8
  %68 = load i8, ptr %11, align 1
  %69 = trunc i8 %68 to i1
  %70 = getelementptr inbounds nuw { ptr, i64 }, ptr %16, i32 0, i32 0
  %71 = load ptr, ptr %70, align 8
  %72 = getelementptr inbounds nuw { ptr, i64 }, ptr %16, i32 0, i32 1
  %73 = load i64, ptr %72, align 8
  %74 = getelementptr inbounds nuw { ptr, i64 }, ptr %18, i32 0, i32 0
  %75 = load ptr, ptr %74, align 8
  %76 = getelementptr inbounds nuw { ptr, i64 }, ptr %18, i32 0, i32 1
  %77 = load i64, ptr %76, align 8
  %78 = call noundef zeroext i1 @_ZN5clang4Sema26FunctionParamTypesAreEqualEN4llvm8ArrayRefINS_8QualTypeEEES4_Pjb(ptr noundef nonnull align 8 dereferenceable(17560) %21, ptr %71, i64 %73, ptr %75, i64 %77, ptr noundef %67, i1 noundef zeroext %69)
  store i1 %78, ptr %6, align 1
  br label %79

79:                                               ; preds = %28, %27
  %80 = load i1, ptr %6, align 1
  ret i1 %80
}