; Function Attrs: mustprogress nounwind uwtable
define dso_local noundef zeroext i1 @_ZN5clang4Sema35FunctionNonObjectParamTypesAreEqualEPKNS_12FunctionDeclES3_Pjb(ptr nocapture noundef nonnull readonly align 8 dereferenceable(17560) %0, ptr noundef nonnull %1, ptr noundef %2, ptr noundef %3, i1 noundef zeroext %4) local_unnamed_addr #4 align 2 {
  %6 = tail call noundef i32 @_ZNK5clang12FunctionDecl21getNumNonObjectParamsEv(ptr noundef nonnull align 8 dereferenceable(168) %1) #26
  %7 = tail call noundef i32 @_ZNK5clang12FunctionDecl21getNumNonObjectParamsEv(ptr noundef nonnull align 8 dereferenceable(168) %2) #26
  %.not = icmp eq i32 %6, %7
  br i1 %.not, label %8, label %28

8:                                                ; preds = %5
  %9 = tail call noundef zeroext i1 @_ZNK5clang12FunctionDecl37hasCXXExplicitFunctionObjectParameterEv(ptr noundef nonnull align 8 dereferenceable(168) %1) #26
  %10 = tail call noundef zeroext i1 @_ZNK5clang12FunctionDecl37hasCXXExplicitFunctionObjectParameterEv(ptr noundef nonnull align 8 dereferenceable(168) %2) #26
  %11 = tail call noundef ptr @_ZNK5clang4Decl15getFunctionTypeEb(ptr noundef nonnull align 8 dereferenceable(33) %1, i1 noundef zeroext true) #26
  %12 = tail call noundef ptr @_ZNK5clang4Decl15getFunctionTypeEb(ptr noundef nonnull align 8 dereferenceable(33) %2, i1 noundef zeroext true) #26
  %13 = getelementptr inbounds i8, ptr %11, i64 48
  %14 = getelementptr inbounds nuw i8, ptr %11, i64 16
  %15 = load i64, ptr %14, align 16
  %16 = lshr i64 %15, 38
  %.idx.i = and i64 %16, 65535
  %17 = zext i1 %9 to i64
  %18 = sub nsw i64 %.idx.i, %17
  %19 = getelementptr inbounds %"class.clang::QualType", ptr %13, i64 %17
  %20 = getelementptr inbounds i8, ptr %12, i64 48
  %21 = getelementptr inbounds nuw i8, ptr %12, i64 16
  %22 = load i64, ptr %21, align 16
  %23 = lshr i64 %22, 38
  %.idx.i15 = and i64 %23, 65535
  %24 = zext i1 %10 to i64
  %25 = sub nsw i64 %.idx.i15, %24
  %26 = getelementptr inbounds %"class.clang::QualType", ptr %20, i64 %24
  %27 = tail call noundef zeroext i1 @_ZN5clang4Sema26FunctionParamTypesAreEqualEN4llvm8ArrayRefINS_8QualTypeEEES4_Pjb(ptr noundef nonnull align 8 dereferenceable(17560) %0, ptr nonnull %19, i64 %18, ptr nonnull %26, i64 %25, ptr noundef %3, i1 noundef zeroext %4)
  br label %28

28:                                               ; preds = %5, %8
  %.0 = phi i1 [ %27, %8 ], [ false, %5 ]
  ret i1 %.0
}